target datalayout = "e-m:e-p270:32:32-p271:32:32-p272:64:64-i64:64-i128:128-f80:128-n8:16:32:64-S128"
target triple = "x86_64-pc-linux-gnu"

%struct.Vec_Int_t_ = type { i32, i32, ptr }
%struct.Cec_ManFra_t_ = type { ptr, ptr, ptr, i32, i32, i32, i32, i32, i32, i64, i64, i64, i64 }

; Function Attrs: inlinehint nounwind uwtable
define internal ptr @Vec_IntAlloc(i32 noundef %0) #5 {
  %2 = alloca i32, align 4
  %3 = alloca ptr, align 8
  store i32 %0, ptr %2, align 4, !tbaa !43
  call void @llvm.lifetime.start.p0(i64 8, ptr %3) #10
  %4 = call noalias ptr @malloc(i64 noundef 16) #11
  store ptr %4, ptr %3, align 8, !tbaa !49
  %5 = load i32, ptr %2, align 4, !tbaa !43
  %6 = icmp sgt i32 %5, 0
  br i1 %6, label %7, label %11

7:                                                ; preds = %1
  %8 = load i32, ptr %2, align 4, !tbaa !43
  %9 = icmp slt i32 %8, 16
  br i1 %9, label %10, label %11

10:                                               ; preds = %7
  store i32 16, ptr %2, align 4, !tbaa !43
  br label %11

11:                                               ; preds = %10, %7, %1
  %12 = load ptr, ptr %3, align 8, !tbaa !49
  %13 = getelementptr inbounds nuw %struct.Vec_Int_t_, ptr %12, i32 0, i32 1
  store i32 0, ptr %13, align 4, !tbaa !50
  %14 = load i32, ptr %2, align 4, !tbaa !43
  %15 = load ptr, ptr %3, align 8, !tbaa !49
  %16 = getelementptr inbounds nuw %struct.Vec_Int_t_, ptr %15, i32 0, i32 0
  store i32 %14, ptr %16, align 8, !tbaa !51
  %17 = load ptr, ptr %3, align 8, !tbaa !49
  %18 = getelementptr inbounds nuw %struct.Vec_Int_t_, ptr %17, i32 0, i32 0
  %19 = load i32, ptr %18, align 8, !tbaa !51
  %20 = icmp ne i32 %19, 0
  br i1 %20, label %21, label %28

21:                                               ; preds = %11
  %22 = load ptr, ptr %3, align 8, !tbaa !49
  %23 = getelementptr inbounds nuw %struct.Vec_Int_t_, ptr %22, i32 0, i32 0
  %24 = load i32, ptr %23, align 8, !tbaa !51
  %25 = sext i32 %24 to i64
  %26 = mul i64 4, %25
  %27 = call noalias ptr @malloc(i64 noundef %26) #11
  br label %29

28:                                               ; preds = %11
  br label %29

29:                                               ; preds = %28, %21
  %30 = phi ptr [ %27, %21 ], [ null, %28 ]
  %31 = load ptr, ptr %3, align 8, !tbaa !49
  %32 = getelementptr inbounds nuw %struct.Vec_Int_t_, ptr %31, i32 0, i32 2
  store ptr %30, ptr %32, align 8, !tbaa !52
  %33 = load ptr, ptr %3, align 8, !tbaa !49
  call void @llvm.lifetime.end.p0(i64 8, ptr %3) #10
  ret ptr %33
}

; Function Attrs: nounwind uwtable
define ptr @Cec_ManFraStart(ptr noundef %0, ptr noundef %1) #0 {
  %3 = alloca ptr, align 8
  %4 = alloca ptr, align 8
  %5 = alloca ptr, align 8
  store ptr %0, ptr %3, align 8, !tbaa !3
  store ptr %1, ptr %4, align 8, !tbaa !128
  call void @llvm.lifetime.start.p0(i64 8, ptr %5) #10
  %6 = call noalias ptr @malloc(i64 noundef 80) #11
  store ptr %6, ptr %5, align 8, !tbaa !130
  %7 = load ptr, ptr %5, align 8, !tbaa !130
  call void @llvm.memset.p0.i64(ptr align 8 %7, i8 0, i64 80, i1 false)
  %8 = load ptr, ptr %3, align 8, !tbaa !3
  %9 = load ptr, ptr %5, align 8, !tbaa !130
  %10 = getelementptr inbounds nuw %struct.Cec_ManFra_t_, ptr %9, i32 0, i32 0
  store ptr %8, ptr %10, align 8, !tbaa !132
  %11 = load ptr, ptr %4, align 8, !tbaa !128
  %12 = load ptr, ptr %5, align 8, !tbaa !130
  %13 = getelementptr inbounds nuw %struct.Cec_ManFra_t_, ptr %12, i32 0, i32 1
  store ptr %11, ptr %13, align 8, !tbaa !134
  %14 = call ptr @Vec_IntAlloc(i32 noundef 1000)
  %15 = load ptr, ptr %5, align 8, !tbaa !130
  %16 = getelementptr inbounds nuw %struct.Cec_ManFra_t_, ptr %15, i32 0, i32 2
  store ptr %14, ptr %16, align 8, !tbaa !135
  %17 = load ptr, ptr %5, align 8, !tbaa !130
  call void @llvm.lifetime.end.p0(i64 8, ptr %5) #10
  ret ptr %17
}