; Function Attrs: mustprogress nofree nounwind willreturn memory(write, argmem: none, inaccessiblemem: readwrite) uwtable
define noalias noundef ptr @Cec_ManFraStart(ptr noundef %0, ptr noundef %1) local_unnamed_addr #9 {
  %calloc = tail call dereferenceable_or_null(80) ptr @calloc(i64 1, i64 80)
  store ptr %0, ptr %calloc, align 8, !tbaa !116
  %3 = getelementptr inbounds nuw i8, ptr %calloc, i64 8
  store ptr %1, ptr %3, align 8, !tbaa !119
  %4 = tail call noalias dereferenceable_or_null(16) ptr @malloc(i64 noundef 16) #17
  %5 = getelementptr inbounds nuw i8, ptr %4, i64 4
  store i32 0, ptr %5, align 4, !tbaa !41
  store i32 1000, ptr %4, align 8, !tbaa !42
  %6 = tail call noalias dereferenceable_or_null(4000) ptr @malloc(i64 noundef 4000) #17
  %7 = getelementptr inbounds nuw i8, ptr %4, i64 8
  store ptr %6, ptr %7, align 8, !tbaa !43
  %8 = getelementptr inbounds nuw i8, ptr %calloc, i64 16
  store ptr %4, ptr %8, align 8, !tbaa !120
  ret ptr %calloc
}